(VMore Mayhem
p0
VImelda May
p1
V2011
p2
((L1L
VPulling the Rug
p3
tp4
(L2L
VPsycho
p5
tp6
(L3L
VMayhem
p7
tp8
(L4L
VKentish Town Waltz
p9
tp10
tp11
tp12
.(lp0
L0L
aL2L
aL4L
aL6L
aL8L
a.(lp0
L1L
aL3L
aL5L
aL7L
aL9L
a.L2998302L
.